target datalayout = "e-m:e-p270:32:32-p271:32:32-p272:64:64-i64:64-i128:128-f80:128-n8:16:32:64-S128"
target triple = "x86_64-pc-linux-gnu"

%struct.ident_t = type { i32, i32, i32, i32, ptr }
%"struct.std::_Vector_base.4" = type { %"struct.std::_Vector_base<long, std::allocator<long>>::_Vector_impl" }
%"struct.std::_Vector_base<long, std::allocator<long>>::_Vector_impl" = type { %"struct.std::_Vector_base<long, std::allocator<long>>::_Vector_impl_data" }
%"struct.std::_Vector_base<long, std::allocator<long>>::_Vector_impl_data" = type { ptr, ptr, ptr }

@2 = private unnamed_addr constant %struct.ident_t { i32 0, i32 514, i32 0, i32 22, ptr @0 }, align 8
@.gomp_critical_user_.reduction.var = common global [8 x i32] zeroinitializer, align 8
@4 = private unnamed_addr constant %struct.ident_t { i32 0, i32 18, i32 0, i32 22, ptr @0 }, align 8

; Function Attrs: mustprogress nounwind uwtable
define linkonce_odr noundef nonnull align 8 dereferenceable(8) ptr @_ZNSt6vectorIlSaIlEEixEm(ptr noundef nonnull align 8 dereferenceable(24) %0, i64 noundef %1) #2 comdat align 2 {
  %3 = alloca ptr, align 8
  %4 = alloca i64, align 8
  store ptr %0, ptr %3, align 8
  store i64 %1, ptr %4, align 8
  %5 = load ptr, ptr %3, align 8
  %6 = getelementptr inbounds %"struct.std::_Vector_base.4", ptr %5, i32 0, i32 0
  %7 = getelementptr inbounds %"struct.std::_Vector_base<long, std::allocator<long>>::_Vector_impl_data", ptr %6, i32 0, i32 0
  %8 = load ptr, ptr %7, align 8
  %9 = load i64, ptr %4, align 8
  %10 = getelementptr inbounds i64, ptr %8, i64 %9
  ret ptr %10
}

; Function Attrs: norecurse nounwind uwtable
define internal void @_ZN5faiss28hashtable_int64_to_int64_addEiPlmPKlS2_.omp_outlined.35(ptr noalias noundef %0, ptr noalias noundef %1, ptr noundef nonnull align 8 dereferenceable(8) %2, ptr noundef nonnull align 4 dereferenceable(4) %3, ptr noundef nonnull align 4 dereferenceable(4) %4, ptr noundef nonnull align 8 dereferenceable(24) %5, ptr noundef nonnull align 8 dereferenceable(24) %6, ptr noundef nonnull align 8 dereferenceable(24) %7, ptr noundef nonnull align 8 dereferenceable(8) %8, ptr noundef nonnull align 8 dereferenceable(8) %9, ptr noundef nonnull align 8 dereferenceable(8) %10, ptr noundef nonnull align 4 dereferenceable(4) %11) #6 {
  %13 = alloca ptr, align 8
  %14 = alloca ptr, align 8
  %15 = alloca ptr, align 8
  %16 = alloca ptr, align 8
  %17 = alloca ptr, align 8
  %18 = alloca ptr, align 8
  %19 = alloca ptr, align 8
  %20 = alloca ptr, align 8
  %21 = alloca ptr, align 8
  %22 = alloca ptr, align 8
  %23 = alloca ptr, align 8
  %24 = alloca ptr, align 8
  %25 = alloca i64, align 8
  %26 = alloca i64, align 8
  %27 = alloca i64, align 8
  %28 = alloca i64, align 8
  %29 = alloca i64, align 8
  %30 = alloca i64, align 8
  %31 = alloca i64, align 8
  %32 = alloca i32, align 4
  %33 = alloca i32, align 4
  %34 = alloca i64, align 8
  %35 = alloca i64, align 8
  %36 = alloca i64, align 8
  %37 = alloca i64, align 8
  %38 = alloca i64, align 8
  %39 = alloca i64, align 8
  %40 = alloca [1 x ptr], align 8
  store ptr %0, ptr %13, align 8
  store ptr %1, ptr %14, align 8
  store ptr %2, ptr %15, align 8
  store ptr %3, ptr %16, align 8
  store ptr %4, ptr %17, align 8
  store ptr %5, ptr %18, align 8
  store ptr %6, ptr %19, align 8
  store ptr %7, ptr %20, align 8
  store ptr %8, ptr %21, align 8
  store ptr %9, ptr %22, align 8
  store ptr %10, ptr %23, align 8
  store ptr %11, ptr %24, align 8
  %41 = load ptr, ptr %15, align 8
  %42 = load ptr, ptr %16, align 8
  %43 = load ptr, ptr %17, align 8
  %44 = load ptr, ptr %18, align 8
  %45 = load ptr, ptr %19, align 8
  %46 = load ptr, ptr %20, align 8
  %47 = load ptr, ptr %21, align 8
  %48 = load ptr, ptr %22, align 8
  %49 = load ptr, ptr %23, align 8
  %50 = load ptr, ptr %24, align 8
  %51 = load i64, ptr %41, align 8
  store i64 %51, ptr %26, align 8
  %52 = load i64, ptr %26, align 8
  %53 = sub i64 %52, 0
  %54 = udiv i64 %53, 1
  %55 = sub i64 %54, 1
  store i64 %55, ptr %27, align 8
  store i64 0, ptr %28, align 8
  %56 = load i64, ptr %26, align 8
  %57 = icmp ult i64 0, %56
  br i1 %57, label %58, label %205

58:                                               ; preds = %12
  store i64 0, ptr %29, align 8
  %59 = load i64, ptr %27, align 8
  store i64 %59, ptr %30, align 8
  store i64 1, ptr %31, align 8
  store i32 0, ptr %32, align 4
  store i32 0, ptr %33, align 4
  %60 = load ptr, ptr %13, align 8
  %61 = load i32, ptr %60, align 4
  call void @__kmpc_for_static_init_8u(ptr @2, i32 %61, i32 34, ptr %32, ptr %29, ptr %30, ptr %31, i64 1, i64 1)
  %62 = load i64, ptr %30, align 8
  %63 = load i64, ptr %27, align 8
  %64 = icmp ugt i64 %62, %63
  br i1 %64, label %65, label %67

65:                                               ; preds = %58
  %66 = load i64, ptr %27, align 8
  br label %69

67:                                               ; preds = %58
  %68 = load i64, ptr %30, align 8
  br label %69

69:                                               ; preds = %67, %65
  %70 = phi i64 [ %66, %65 ], [ %68, %67 ]
  store i64 %70, ptr %30, align 8
  %71 = load i64, ptr %29, align 8
  store i64 %71, ptr %25, align 8
  br label %72

72:                                               ; preds = %186, %69
  %73 = load i64, ptr %25, align 8
  %74 = load i64, ptr %30, align 8
  %75 = add i64 %74, 1
  %76 = icmp ult i64 %73, %75
  br i1 %76, label %77, label %189

77:                                               ; preds = %72
  %78 = load i64, ptr %25, align 8
  %79 = mul i64 %78, 1
  %80 = add i64 0, %79
  store i64 %80, ptr %34, align 8
  %81 = load i64, ptr %34, align 8
  %82 = load i32, ptr %42, align 4
  %83 = load i32, ptr %43, align 4
  %84 = sub nsw i32 %82, %83
  %85 = zext i32 %84 to i64
  %86 = shl i64 %81, %85
  store i64 %86, ptr %35, align 8
  %87 = load i64, ptr %34, align 8
  %88 = add nsw i64 %87, 1
  %89 = load i32, ptr %42, align 4
  %90 = load i32, ptr %43, align 4
  %91 = sub nsw i32 %89, %90
  %92 = zext i32 %91 to i64
  %93 = shl i64 %88, %92
  store i64 %93, ptr %36, align 8
  %94 = load i64, ptr %34, align 8
  %95 = call noundef nonnull align 8 dereferenceable(8) ptr @_ZNSt6vectorIlSaIlEEixEm(ptr noundef nonnull align 8 dereferenceable(24) %44, i64 noundef %94) #7
  %96 = load i64, ptr %95, align 8
  store i64 %96, ptr %37, align 8
  br label %97

97:                                               ; preds = %181, %77
  %98 = load i64, ptr %37, align 8
  %99 = load i64, ptr %34, align 8
  %100 = add nsw i64 %99, 1
  %101 = call noundef nonnull align 8 dereferenceable(8) ptr @_ZNSt6vectorIlSaIlEEixEm(ptr noundef nonnull align 8 dereferenceable(24) %44, i64 noundef %100) #7
  %102 = load i64, ptr %101, align 8
  %103 = icmp ult i64 %98, %102
  br i1 %103, label %104, label %184

104:                                              ; preds = %97
  %105 = load i64, ptr %37, align 8
  %106 = call noundef nonnull align 8 dereferenceable(8) ptr @_ZNSt6vectorIlSaIlEEixEm(ptr noundef nonnull align 8 dereferenceable(24) %45, i64 noundef %105) #7
  %107 = load i64, ptr %106, align 8
  store i64 %107, ptr %38, align 8
  %108 = load i64, ptr %38, align 8
  %109 = call noundef nonnull align 8 dereferenceable(8) ptr @_ZNSt6vectorIlSaIlEEixEm(ptr noundef nonnull align 8 dereferenceable(24) %46, i64 noundef %108) #7
  %110 = load i64, ptr %109, align 8
  store i64 %110, ptr %39, align 8
  br label %111

111:                                              ; preds = %175, %104
  %112 = load ptr, ptr %47, align 8
  %113 = load i64, ptr %39, align 8
  %114 = mul i64 %113, 2
  %115 = getelementptr inbounds i64, ptr %112, i64 %114
  %116 = load i64, ptr %115, align 8
  %117 = icmp eq i64 %116, -1
  br i1 %117, label %118, label %136

118:                                              ; preds = %111
  %119 = load ptr, ptr %48, align 8
  %120 = load i64, ptr %38, align 8
  %121 = getelementptr inbounds i64, ptr %119, i64 %120
  %122 = load i64, ptr %121, align 8
  %123 = load ptr, ptr %47, align 8
  %124 = load i64, ptr %39, align 8
  %125 = mul i64 %124, 2
  %126 = getelementptr inbounds i64, ptr %123, i64 %125
  store i64 %122, ptr %126, align 8
  %127 = load ptr, ptr %49, align 8
  %128 = load i64, ptr %38, align 8
  %129 = getelementptr inbounds i64, ptr %127, i64 %128
  %130 = load i64, ptr %129, align 8
  %131 = load ptr, ptr %47, align 8
  %132 = load i64, ptr %39, align 8
  %133 = mul i64 %132, 2
  %134 = add i64 %133, 1
  %135 = getelementptr inbounds i64, ptr %131, i64 %134
  store i64 %130, ptr %135, align 8
  br label %176

136:                                              ; preds = %111
  %137 = load ptr, ptr %47, align 8
  %138 = load i64, ptr %39, align 8
  %139 = mul i64 %138, 2
  %140 = getelementptr inbounds i64, ptr %137, i64 %139
  %141 = load i64, ptr %140, align 8
  %142 = load ptr, ptr %48, align 8
  %143 = load i64, ptr %38, align 8
  %144 = getelementptr inbounds i64, ptr %142, i64 %143
  %145 = load i64, ptr %144, align 8
  %146 = icmp eq i64 %141, %145
  br i1 %146, label %147, label %157

147:                                              ; preds = %136
  %148 = load ptr, ptr %49, align 8
  %149 = load i64, ptr %38, align 8
  %150 = getelementptr inbounds i64, ptr %148, i64 %149
  %151 = load i64, ptr %150, align 8
  %152 = load ptr, ptr %47, align 8
  %153 = load i64, ptr %39, align 8
  %154 = mul i64 %153, 2
  %155 = add i64 %154, 1
  %156 = getelementptr inbounds i64, ptr %152, i64 %155
  store i64 %151, ptr %156, align 8
  br label %176

157:                                              ; preds = %136
  br label %158

158:                                              ; preds = %157
  %159 = load i64, ptr %39, align 8
  %160 = add i64 %159, 1
  store i64 %160, ptr %39, align 8
  %161 = load i64, ptr %39, align 8
  %162 = load i64, ptr %36, align 8
  %163 = icmp eq i64 %161, %162
  br i1 %163, label %164, label %166

164:                                              ; preds = %158
  %165 = load i64, ptr %35, align 8
  store i64 %165, ptr %39, align 8
  br label %166

166:                                              ; preds = %164, %158
  %167 = load i64, ptr %39, align 8
  %168 = load i64, ptr %38, align 8
  %169 = call noundef nonnull align 8 dereferenceable(8) ptr @_ZNSt6vectorIlSaIlEEixEm(ptr noundef nonnull align 8 dereferenceable(24) %46, i64 noundef %168) #7
  %170 = load i64, ptr %169, align 8
  %171 = icmp eq i64 %167, %170
  br i1 %171, label %172, label %175

172:                                              ; preds = %166
  %173 = load i32, ptr %33, align 4
  %174 = add nsw i32 %173, 1
  store i32 %174, ptr %33, align 4
  br label %176

175:                                              ; preds = %166
  br label %111, !llvm.loop !88

176:                                              ; preds = %172, %147, %118
  %177 = load i32, ptr %33, align 4
  %178 = icmp sgt i32 %177, 0
  br i1 %178, label %179, label %180

179:                                              ; preds = %176
  br label %184

180:                                              ; preds = %176
  br label %181

181:                                              ; preds = %180
  %182 = load i64, ptr %37, align 8
  %183 = add i64 %182, 1
  store i64 %183, ptr %37, align 8
  br label %97, !llvm.loop !89

184:                                              ; preds = %179, %97
  br label %185

185:                                              ; preds = %184
  br label %186

186:                                              ; preds = %185
  %187 = load i64, ptr %25, align 8
  %188 = add i64 %187, 1
  store i64 %188, ptr %25, align 8
  br label %72

189:                                              ; preds = %72
  br label %190

190:                                              ; preds = %189
  %191 = load ptr, ptr %13, align 8
  %192 = load i32, ptr %191, align 4
  call void @__kmpc_for_static_fini(ptr @2, i32 %192)
  %193 = getelementptr inbounds [1 x ptr], ptr %40, i64 0, i64 0
  store ptr %33, ptr %193, align 8
  %194 = load ptr, ptr %13, align 8
  %195 = load i32, ptr %194, align 4
  %196 = call i32 @__kmpc_reduce_nowait(ptr @4, i32 %195, i32 1, i64 8, ptr %40, ptr @_ZN5faiss28hashtable_int64_to_int64_addEiPlmPKlS2_.omp_outlined.35.omp.reduction.reduction_func, ptr @.gomp_critical_user_.reduction.var)
  switch i32 %196, label %204 [
    i32 1, label %197
    i32 2, label %201
  ]

197:                                              ; preds = %190
  %198 = load i32, ptr %50, align 4
  %199 = load i32, ptr %33, align 4
  %200 = add nsw i32 %198, %199
  store i32 %200, ptr %50, align 4
  call void @__kmpc_end_reduce_nowait(ptr @4, i32 %195, ptr @.gomp_critical_user_.reduction.var)
  br label %204

201:                                              ; preds = %190
  %202 = load i32, ptr %33, align 4
  %203 = atomicrmw add ptr %50, i32 %202 monotonic, align 4
  br label %204

204:                                              ; preds = %201, %197, %190
  br label %205

205:                                              ; preds = %204, %12
  ret void
}