; Function Attrs: norecurse nounwind uwtable
define internal void @_ZN5faiss28hashtable_int64_to_int64_addEiPlmPKlS2_.omp_outlined.35(ptr noalias nocapture noundef readonly %0, ptr noalias nocapture readnone %1, ptr nocapture noundef nonnull readonly align 8 dereferenceable(8) %2, ptr nocapture noundef nonnull readonly align 4 dereferenceable(4) %3, ptr nocapture noundef nonnull readonly align 4 dereferenceable(4) %4, ptr nocapture noundef nonnull readonly align 8 dereferenceable(24) %5, ptr nocapture noundef nonnull readonly align 8 dereferenceable(24) %6, ptr nocapture noundef nonnull readonly align 8 dereferenceable(24) %7, ptr nocapture noundef nonnull readonly align 8 dereferenceable(8) %8, ptr nocapture noundef nonnull readonly align 8 dereferenceable(8) %9, ptr nocapture noundef nonnull readonly align 8 dereferenceable(8) %10, ptr nocapture noundef nonnull align 4 dereferenceable(4) %11) #8 {
  %13 = alloca i64, align 8
  %14 = alloca i64, align 8
  %15 = alloca i64, align 8
  %16 = alloca i32, align 4
  %17 = alloca i32, align 4
  %18 = alloca [1 x ptr], align 8
  %19 = load i64, ptr %2, align 8
  %.not = icmp eq i64 %19, 0
  br i1 %.not, label %96, label %20

20:                                               ; preds = %12
  %21 = add i64 %19, -1
  store i64 0, ptr %13, align 8
  store i64 %21, ptr %14, align 8
  store i64 1, ptr %15, align 8
  store i32 0, ptr %16, align 4
  %22 = load i32, ptr %0, align 4
  call void @__kmpc_for_static_init_8u(ptr nonnull @2, i32 %22, i32 34, ptr nonnull %16, ptr nonnull %13, ptr nonnull %14, ptr nonnull %15, i64 1, i64 1)
  %23 = load i64, ptr %14, align 8
  %24 = call i64 @llvm.umin.i64(i64 %23, i64 %21)
  store i64 %24, ptr %14, align 8
  %25 = load i64, ptr %13, align 8
  %.not80 = icmp ugt i64 %25, %24
  br i1 %.not80, label %._crit_edge70, label %.lr.ph69

.lr.ph69:                                         ; preds = %20, %._crit_edge
  %26 = phi i64 [ %85, %._crit_edge ], [ %24, %20 ]
  %.04367 = phi i64 [ %32, %._crit_edge ], [ %25, %20 ]
  %.pr596566 = phi i32 [ %.pr59, %._crit_edge ], [ 0, %20 ]
  %27 = load i32, ptr %3, align 4
  %28 = load i32, ptr %4, align 4
  %29 = sub nsw i32 %27, %28
  %30 = zext i32 %29 to i64
  %31 = shl i64 %.04367, %30
  %32 = add nuw i64 %.04367, 1
  %33 = shl i64 %32, %30
  %34 = load ptr, ptr %5, align 8
  %35 = getelementptr inbounds i64, ptr %34, i64 %.04367
  %36 = load i64, ptr %35, align 8
  %37 = getelementptr inbounds i64, ptr %34, i64 %32
  %38 = load i64, ptr %37, align 8
  %39 = icmp ult i64 %36, %38
  br i1 %39, label %.lr.ph, label %._crit_edge

40:                                               ; preds = %thread-pre-split
  %41 = add nuw i64 %.04461, 1
  %42 = load ptr, ptr %5, align 8
  %43 = getelementptr inbounds i64, ptr %42, i64 %32
  %44 = load i64, ptr %43, align 8
  %45 = icmp ult i64 %41, %44
  br i1 %45, label %.lr.ph, label %._crit_edge.loopexit, !llvm.loop !91

.lr.ph:                                           ; preds = %.lr.ph69, %40
  %.04461 = phi i64 [ %41, %40 ], [ %36, %.lr.ph69 ]
  %.pr5860 = phi i32 [ %.pr57, %40 ], [ %.pr596566, %.lr.ph69 ]
  %46 = load ptr, ptr %6, align 8
  %47 = getelementptr inbounds i64, ptr %46, i64 %.04461
  %48 = load i64, ptr %47, align 8
  %49 = load ptr, ptr %7, align 8
  %50 = getelementptr inbounds i64, ptr %49, i64 %48
  %51 = load i64, ptr %50, align 8
  %52 = load ptr, ptr %8, align 8
  %53 = load ptr, ptr %9, align 8
  %54 = getelementptr inbounds i64, ptr %53, i64 %48
  br label %55

55:                                               ; preds = %78, %.lr.ph
  %.0 = phi i64 [ %51, %.lr.ph ], [ %spec.select, %78 ]
  %56 = shl i64 %.0, 1
  %57 = getelementptr inbounds i64, ptr %52, i64 %56
  %58 = load i64, ptr %57, align 8
  %59 = icmp eq i64 %58, -1
  br i1 %59, label %60, label %69

60:                                               ; preds = %55
  %61 = getelementptr inbounds i64, ptr %52, i64 %56
  %62 = load i64, ptr %54, align 8
  store i64 %62, ptr %61, align 8
  %63 = load ptr, ptr %10, align 8
  %64 = getelementptr inbounds i64, ptr %63, i64 %48
  %65 = load i64, ptr %64, align 8
  %66 = load ptr, ptr %8, align 8
  %67 = or disjoint i64 %56, 1
  %68 = getelementptr inbounds i64, ptr %66, i64 %67
  store i64 %65, ptr %68, align 8
  br label %thread-pre-split

69:                                               ; preds = %55
  %70 = load i64, ptr %54, align 8
  %71 = icmp eq i64 %58, %70
  br i1 %71, label %72, label %78

72:                                               ; preds = %69
  %73 = load ptr, ptr %10, align 8
  %74 = getelementptr inbounds i64, ptr %73, i64 %48
  %75 = load i64, ptr %74, align 8
  %76 = or disjoint i64 %56, 1
  %77 = getelementptr inbounds i64, ptr %52, i64 %76
  store i64 %75, ptr %77, align 8
  br label %thread-pre-split

78:                                               ; preds = %69
  %79 = add i64 %.0, 1
  %80 = icmp eq i64 %79, %33
  %spec.select = select i1 %80, i64 %31, i64 %79
  %81 = icmp eq i64 %spec.select, %51
  br i1 %81, label %82, label %55, !llvm.loop !92

82:                                               ; preds = %78
  %83 = add nsw i32 %.pr5860, 1
  br label %thread-pre-split

thread-pre-split:                                 ; preds = %72, %60, %82
  %.pr57 = phi i32 [ %83, %82 ], [ %.pr5860, %60 ], [ %.pr5860, %72 ]
  %84 = icmp sgt i32 %.pr57, 0
  br i1 %84, label %._crit_edge.loopexit, label %40

._crit_edge.loopexit:                             ; preds = %thread-pre-split, %40
  %.pre = load i64, ptr %14, align 8
  br label %._crit_edge

._crit_edge:                                      ; preds = %._crit_edge.loopexit, %.lr.ph69
  %85 = phi i64 [ %26, %.lr.ph69 ], [ %.pre, %._crit_edge.loopexit ]
  %.pr59 = phi i32 [ %.pr596566, %.lr.ph69 ], [ %.pr57, %._crit_edge.loopexit ]
  %86 = add i64 %85, 1
  %87 = icmp ult i64 %32, %86
  br i1 %87, label %.lr.ph69, label %._crit_edge70

._crit_edge70:                                    ; preds = %._crit_edge, %20
  %.pr5965.lcssa = phi i32 [ 0, %20 ], [ %.pr59, %._crit_edge ]
  store i32 %.pr5965.lcssa, ptr %17, align 4
  call void @__kmpc_for_static_fini(ptr nonnull @2, i32 %22)
  store ptr %17, ptr %18, align 8
  %88 = call i32 @__kmpc_reduce_nowait(ptr nonnull @4, i32 %22, i32 1, i64 8, ptr nonnull %18, ptr nonnull @_ZN5faiss28hashtable_int64_to_int64_addEiPlmPKlS2_.omp_outlined.35.omp.reduction.reduction_func, ptr nonnull @.gomp_critical_user_.reduction.var)
  switch i32 %88, label %96 [
    i32 1, label %89
    i32 2, label %93
  ]

89:                                               ; preds = %._crit_edge70
  %90 = load i32, ptr %11, align 4
  %91 = load i32, ptr %17, align 4
  %92 = add nsw i32 %91, %90
  store i32 %92, ptr %11, align 4
  call void @__kmpc_end_reduce_nowait(ptr nonnull @4, i32 %22, ptr nonnull @.gomp_critical_user_.reduction.var)
  br label %96

93:                                               ; preds = %._crit_edge70
  %94 = load i32, ptr %17, align 4
  %95 = atomicrmw add ptr %11, i32 %94 monotonic, align 4
  br label %96

96:                                               ; preds = %._crit_edge70, %89, %93, %12
  ret void
}